; Function Attrs: mustprogress nounwind uwtable
define dso_local noundef zeroext i1 @_ZNK4llvm15TreePredicateFn23isAtomicOrderingReleaseEv(ptr nocapture noundef nonnull readonly align 8 dereferenceable(8) %0) local_unnamed_addr #0 align 2 {
  %2 = alloca i8, align 1
  call void @llvm.lifetime.start.p0(i64 1, ptr nonnull %2)
  %3 = load ptr, ptr %0, align 8
  %4 = getelementptr inbounds nuw i8, ptr %3, i64 48
  %5 = load ptr, ptr %4, align 8
  %6 = call noundef zeroext i1 @_ZNK4llvm6Record20getValueAsBitOrUnsetENS_9StringRefERb(ptr noundef nonnull align 8 dereferenceable(192) %5, ptr nonnull @.str.81, i64 23, ptr noundef nonnull align 1 dereferenceable(1) %2) #29
  %7 = load i8, ptr %2, align 1
  %8 = trunc i8 %7 to i1
  %.not = xor i1 %8, true
  %.0.i = and i1 %6, %.not
  call void @llvm.lifetime.end.p0(i64 1, ptr nonnull %2)
  ret i1 %.0.i
}